target datalayout = "e-m:e-p270:32:32-p271:32:32-p272:64:64-i64:64-i128:128-f80:128-n8:16:32:64-S128"
target triple = "x86_64-pc-linux-gnu"

%struct.KINMemRec = type { ptr, double, ptr, ptr, double, double, i32, i64, i64, i64, i64, i32, i32, i32, i32, i32, i32, i32, i32, double, double, double, double, double, double, double, double, double, i32, double, i64, i64, i64, i64, i64, i64, i64, ptr, ptr, ptr, ptr, ptr, ptr, ptr, ptr, ptr, ptr, ptr, i32, i32, double, ptr, ptr, ptr, ptr, ptr, double, ptr, ptr, ptr, ptr, i64, i64, i32, ptr, ptr, i32, ptr, ptr, i64, i64, i64, i64, ptr, ptr, ptr, ptr, i32, ptr, double, double, double, double, double, i32, double, double, double, i32 }
%struct._generic_N_Vector = type { ptr, ptr, ptr }
%struct._generic_N_Vector_Ops = type { ptr, ptr, ptr, ptr, ptr, ptr, ptr, ptr, ptr, ptr, ptr, ptr, ptr, ptr, ptr, ptr, ptr, ptr, ptr, ptr, ptr, ptr, ptr, ptr, ptr, ptr, ptr, ptr, ptr, ptr, ptr, ptr, ptr, ptr, ptr, ptr, ptr, ptr, ptr, ptr, ptr, ptr, ptr, ptr, ptr, ptr, ptr, ptr, ptr, ptr, ptr, ptr, ptr, ptr, ptr, ptr }
%struct.KINLsMemRec = type { i32, i32, i32, ptr, ptr, ptr, ptr, double, i64, i64, i64, i64, i64, i64, i64, i32, i32, ptr, ptr, ptr, ptr, i32, ptr, ptr, ptr }

@.str = private unnamed_addr constant [118 x i8] c"generated/home/dtcxzyw/WorkSpace/Projects/compilers/llvm-opt-benchmark/bench/sundials/sundials/src/kinsol/kinsol_ls.c\00", align 1
@.str.1 = private unnamed_addr constant [23 x i8] c"KINSOL memory is NULL.\00", align 1
@.str.5 = private unnamed_addr constant [48 x i8] c"A required vector operation is not implemented.\00", align 1
@.str.26 = private unnamed_addr constant [30 x i8] c"Linear solver memory is NULL.\00", align 1
@__func__.kinLsDQJtimes = private unnamed_addr constant [14 x i8] c"kinLsDQJtimes\00", align 1

; Function Attrs: nounwind uwtable
define i32 @kinLs_AccessLMem(ptr noundef %0, ptr noundef %1, ptr noundef %2, ptr noundef %3) #0 {
  %5 = alloca i32, align 4
  %6 = alloca ptr, align 8
  %7 = alloca ptr, align 8
  %8 = alloca ptr, align 8
  %9 = alloca ptr, align 8
  store ptr %0, ptr %6, align 8, !tbaa !3
  store ptr %1, ptr %7, align 8, !tbaa !105
  store ptr %2, ptr %8, align 8, !tbaa !107
  store ptr %3, ptr %9, align 8, !tbaa !109
  %10 = load ptr, ptr %6, align 8, !tbaa !3
  %11 = icmp eq ptr %10, null
  br i1 %11, label %12, label %14

12:                                               ; preds = %4
  %13 = load ptr, ptr %7, align 8, !tbaa !105
  call void (ptr, i32, i32, ptr, ptr, ptr, ...) @KINProcessError(ptr noundef null, i32 noundef -1, i32 noundef 1399, ptr noundef %13, ptr noundef @.str, ptr noundef @.str.1)
  store i32 -1, ptr %5, align 4
  br label %32

14:                                               ; preds = %4
  %15 = load ptr, ptr %6, align 8, !tbaa !3
  %16 = load ptr, ptr %8, align 8, !tbaa !107
  store ptr %15, ptr %16, align 8, !tbaa !11
  %17 = load ptr, ptr %8, align 8, !tbaa !107
  %18 = load ptr, ptr %17, align 8, !tbaa !11
  %19 = getelementptr inbounds nuw %struct.KINMemRec, ptr %18, i32 0, i32 78
  %20 = load ptr, ptr %19, align 8, !tbaa !66
  %21 = icmp eq ptr %20, null
  br i1 %21, label %22, label %26

22:                                               ; preds = %14
  %23 = load ptr, ptr %8, align 8, !tbaa !107
  %24 = load ptr, ptr %23, align 8, !tbaa !11
  %25 = load ptr, ptr %7, align 8, !tbaa !105
  call void (ptr, i32, i32, ptr, ptr, ptr, ...) @KINProcessError(ptr noundef %24, i32 noundef -2, i32 noundef 1406, ptr noundef %25, ptr noundef @.str, ptr noundef @.str.26)
  store i32 -2, ptr %5, align 4
  br label %32

26:                                               ; preds = %14
  %27 = load ptr, ptr %8, align 8, !tbaa !107
  %28 = load ptr, ptr %27, align 8, !tbaa !11
  %29 = getelementptr inbounds nuw %struct.KINMemRec, ptr %28, i32 0, i32 78
  %30 = load ptr, ptr %29, align 8, !tbaa !66
  %31 = load ptr, ptr %9, align 8, !tbaa !109
  store ptr %30, ptr %31, align 8, !tbaa !45
  store i32 0, ptr %5, align 4
  br label %32

32:                                               ; preds = %26, %22, %12
  %33 = load i32, ptr %5, align 4
  ret i32 %33
}

; Function Attrs: nounwind uwtable
define i32 @kinLsDQJtimes(ptr noundef %0, ptr noundef %1, ptr noundef %2, ptr noundef %3, ptr noundef %4) #0 {
  %6 = alloca i32, align 4
  %7 = alloca ptr, align 8
  %8 = alloca ptr, align 8
  %9 = alloca ptr, align 8
  %10 = alloca ptr, align 8
  %11 = alloca ptr, align 8
  %12 = alloca double, align 8
  %13 = alloca double, align 8
  %14 = alloca double, align 8
  %15 = alloca double, align 8
  %16 = alloca double, align 8
  %17 = alloca double, align 8
  %18 = alloca ptr, align 8
  %19 = alloca ptr, align 8
  %20 = alloca i32, align 4
  %21 = alloca i32, align 4
  store ptr %0, ptr %7, align 8, !tbaa !85
  store ptr %1, ptr %8, align 8, !tbaa !85
  store ptr %2, ptr %9, align 8, !tbaa !85
  store ptr %3, ptr %10, align 8, !tbaa !95
  store ptr %4, ptr %11, align 8, !tbaa !3
  call void @llvm.lifetime.start.p0(i64 8, ptr %12) #7
  call void @llvm.lifetime.start.p0(i64 8, ptr %13) #7
  call void @llvm.lifetime.start.p0(i64 8, ptr %14) #7
  call void @llvm.lifetime.start.p0(i64 8, ptr %15) #7
  call void @llvm.lifetime.start.p0(i64 8, ptr %16) #7
  call void @llvm.lifetime.start.p0(i64 8, ptr %17) #7
  call void @llvm.lifetime.start.p0(i64 8, ptr %18) #7
  call void @llvm.lifetime.start.p0(i64 8, ptr %19) #7
  call void @llvm.lifetime.start.p0(i64 4, ptr %20) #7
  %22 = load ptr, ptr %11, align 8, !tbaa !3
  %23 = call i32 @kinLs_AccessLMem(ptr noundef %22, ptr noundef @__func__.kinLsDQJtimes, ptr noundef %18, ptr noundef %19)
  store i32 %23, ptr %20, align 4, !tbaa !20
  %24 = load i32, ptr %20, align 4, !tbaa !20
  %25 = icmp ne i32 %24, 0
  br i1 %25, label %26, label %28

26:                                               ; preds = %5
  %27 = load i32, ptr %20, align 4, !tbaa !20
  store i32 %27, ptr %6, align 4
  store i32 1, ptr %21, align 4
  br label %149

28:                                               ; preds = %5
  %29 = load ptr, ptr %7, align 8, !tbaa !85
  %30 = getelementptr inbounds nuw %struct._generic_N_Vector, ptr %29, i32 0, i32 1
  %31 = load ptr, ptr %30, align 8, !tbaa !31
  %32 = getelementptr inbounds nuw %struct._generic_N_Vector_Ops, ptr %31, i32 0, i32 13
  %33 = load ptr, ptr %32, align 8, !tbaa !97
  %34 = icmp eq ptr %33, null
  br i1 %34, label %56, label %35

35:                                               ; preds = %28
  %36 = load ptr, ptr %7, align 8, !tbaa !85
  %37 = getelementptr inbounds nuw %struct._generic_N_Vector, ptr %36, i32 0, i32 1
  %38 = load ptr, ptr %37, align 8, !tbaa !31
  %39 = getelementptr inbounds nuw %struct._generic_N_Vector_Ops, ptr %38, i32 0, i32 19
  %40 = load ptr, ptr %39, align 8, !tbaa !36
  %41 = icmp eq ptr %40, null
  br i1 %41, label %56, label %42

42:                                               ; preds = %35
  %43 = load ptr, ptr %7, align 8, !tbaa !85
  %44 = getelementptr inbounds nuw %struct._generic_N_Vector, ptr %43, i32 0, i32 1
  %45 = load ptr, ptr %44, align 8, !tbaa !31
  %46 = getelementptr inbounds nuw %struct._generic_N_Vector_Ops, ptr %45, i32 0, i32 25
  %47 = load ptr, ptr %46, align 8, !tbaa !98
  %48 = icmp eq ptr %47, null
  br i1 %48, label %56, label %49

49:                                               ; preds = %42
  %50 = load ptr, ptr %7, align 8, !tbaa !85
  %51 = getelementptr inbounds nuw %struct._generic_N_Vector, ptr %50, i32 0, i32 1
  %52 = load ptr, ptr %51, align 8, !tbaa !31
  %53 = getelementptr inbounds nuw %struct._generic_N_Vector_Ops, ptr %52, i32 0, i32 11
  %54 = load ptr, ptr %53, align 8, !tbaa !72
  %55 = icmp eq ptr %54, null
  br i1 %55, label %56, label %58

56:                                               ; preds = %49, %42, %35, %28
  %57 = load ptr, ptr %18, align 8, !tbaa !11
  call void (ptr, i32, i32, ptr, ptr, ptr, ...) @KINProcessError(ptr noundef %57, i32 noundef -3, i32 noundef 962, ptr noundef @__func__.kinLsDQJtimes, ptr noundef @.str, ptr noundef @.str.5)
  store i32 -3, ptr %6, align 4
  store i32 1, ptr %21, align 4
  br label %149

58:                                               ; preds = %49
  %59 = load ptr, ptr %7, align 8, !tbaa !85
  %60 = load ptr, ptr %18, align 8, !tbaa !11
  %61 = getelementptr inbounds nuw %struct.KINMemRec, ptr %60, i32 0, i32 41
  %62 = load ptr, ptr %61, align 8, !tbaa !99
  %63 = load ptr, ptr %18, align 8, !tbaa !11
  %64 = getelementptr inbounds nuw %struct.KINMemRec, ptr %63, i32 0, i32 45
  %65 = load ptr, ptr %64, align 8, !tbaa !22
  call void @N_VProd(ptr noundef %59, ptr noundef %62, ptr noundef %65)
  %66 = load ptr, ptr %9, align 8, !tbaa !85
  %67 = load ptr, ptr %18, align 8, !tbaa !11
  %68 = getelementptr inbounds nuw %struct.KINMemRec, ptr %67, i32 0, i32 41
  %69 = load ptr, ptr %68, align 8, !tbaa !99
  %70 = load ptr, ptr %8, align 8, !tbaa !85
  call void @N_VProd(ptr noundef %66, ptr noundef %69, ptr noundef %70)
  %71 = load ptr, ptr %8, align 8, !tbaa !85
  %72 = load ptr, ptr %18, align 8, !tbaa !11
  %73 = getelementptr inbounds nuw %struct.KINMemRec, ptr %72, i32 0, i32 45
  %74 = load ptr, ptr %73, align 8, !tbaa !22
  %75 = call double @N_VDotProd(ptr noundef %71, ptr noundef %74)
  store double %75, ptr %14, align 8, !tbaa !88
  %76 = load ptr, ptr %18, align 8, !tbaa !11
  %77 = getelementptr inbounds nuw %struct.KINMemRec, ptr %76, i32 0, i32 45
  %78 = load ptr, ptr %77, align 8, !tbaa !22
  %79 = load ptr, ptr %18, align 8, !tbaa !11
  %80 = getelementptr inbounds nuw %struct.KINMemRec, ptr %79, i32 0, i32 45
  %81 = load ptr, ptr %80, align 8, !tbaa !22
  %82 = call double @N_VDotProd(ptr noundef %78, ptr noundef %81)
  store double %82, ptr %17, align 8, !tbaa !88
  %83 = load ptr, ptr %18, align 8, !tbaa !11
  %84 = getelementptr inbounds nuw %struct.KINMemRec, ptr %83, i32 0, i32 45
  %85 = load ptr, ptr %84, align 8, !tbaa !22
  %86 = call double @N_VL1Norm(ptr noundef %85)
  store double %86, ptr %15, align 8, !tbaa !88
  %87 = load double, ptr %14, align 8, !tbaa !88
  %88 = fcmp oge double %87, 0.000000e+00
  %89 = select i1 %88, double 1.000000e+00, double -1.000000e+00
  store double %89, ptr %16, align 8, !tbaa !88
  %90 = load double, ptr %16, align 8, !tbaa !88
  %91 = load ptr, ptr %18, align 8, !tbaa !11
  %92 = getelementptr inbounds nuw %struct.KINMemRec, ptr %91, i32 0, i32 21
  %93 = load double, ptr %92, align 8, !tbaa !100
  %94 = fmul double %90, %93
  %95 = load double, ptr %14, align 8, !tbaa !88
  %96 = call double @llvm.fabs.f64(double %95)
  %97 = load double, ptr %15, align 8, !tbaa !88
  %98 = fcmp ogt double %96, %97
  br i1 %98, label %99, label %102

99:                                               ; preds = %58
  %100 = load double, ptr %14, align 8, !tbaa !88
  %101 = call double @llvm.fabs.f64(double %100)
  br label %104

102:                                              ; preds = %58
  %103 = load double, ptr %15, align 8, !tbaa !88
  br label %104

104:                                              ; preds = %102, %99
  %105 = phi double [ %101, %99 ], [ %103, %102 ]
  %106 = fmul double %94, %105
  %107 = load double, ptr %17, align 8, !tbaa !88
  %108 = fdiv double %106, %107
  store double %108, ptr %12, align 8, !tbaa !88
  %109 = load double, ptr %12, align 8, !tbaa !88
  %110 = fdiv double 1.000000e+00, %109
  store double %110, ptr %13, align 8, !tbaa !88
  %111 = load ptr, ptr %9, align 8, !tbaa !85
  %112 = load double, ptr %12, align 8, !tbaa !88
  %113 = load ptr, ptr %7, align 8, !tbaa !85
  %114 = load ptr, ptr %18, align 8, !tbaa !11
  %115 = getelementptr inbounds nuw %struct.KINMemRec, ptr %114, i32 0, i32 45
  %116 = load ptr, ptr %115, align 8, !tbaa !22
  call void @N_VLinearSum(double noundef 1.000000e+00, ptr noundef %111, double noundef %112, ptr noundef %113, ptr noundef %116)
  %117 = load ptr, ptr %19, align 8, !tbaa !45
  %118 = getelementptr inbounds nuw %struct.KINLsMemRec, ptr %117, i32 0, i32 23
  %119 = load ptr, ptr %118, align 8, !tbaa !55
  %120 = load ptr, ptr %18, align 8, !tbaa !11
  %121 = getelementptr inbounds nuw %struct.KINMemRec, ptr %120, i32 0, i32 45
  %122 = load ptr, ptr %121, align 8, !tbaa !22
  %123 = load ptr, ptr %18, align 8, !tbaa !11
  %124 = getelementptr inbounds nuw %struct.KINMemRec, ptr %123, i32 0, i32 46
  %125 = load ptr, ptr %124, align 8, !tbaa !82
  %126 = load ptr, ptr %18, align 8, !tbaa !11
  %127 = getelementptr inbounds nuw %struct.KINMemRec, ptr %126, i32 0, i32 3
  %128 = load ptr, ptr %127, align 8, !tbaa !60
  %129 = call i32 %119(ptr noundef %122, ptr noundef %125, ptr noundef %128)
  store i32 %129, ptr %20, align 4, !tbaa !20
  %130 = load ptr, ptr %19, align 8, !tbaa !45
  %131 = getelementptr inbounds nuw %struct.KINLsMemRec, ptr %130, i32 0, i32 9
  %132 = load i64, ptr %131, align 8, !tbaa !101
  %133 = add nsw i64 %132, 1
  store i64 %133, ptr %131, align 8, !tbaa !101
  %134 = load i32, ptr %20, align 4, !tbaa !20
  %135 = icmp ne i32 %134, 0
  br i1 %135, label %136, label %138

136:                                              ; preds = %104
  %137 = load i32, ptr %20, align 4, !tbaa !20
  store i32 %137, ptr %6, align 4
  store i32 1, ptr %21, align 4
  br label %149

138:                                              ; preds = %104
  %139 = load double, ptr %13, align 8, !tbaa !88
  %140 = load ptr, ptr %18, align 8, !tbaa !11
  %141 = getelementptr inbounds nuw %struct.KINMemRec, ptr %140, i32 0, i32 46
  %142 = load ptr, ptr %141, align 8, !tbaa !82
  %143 = load double, ptr %13, align 8, !tbaa !88
  %144 = fneg double %143
  %145 = load ptr, ptr %18, align 8, !tbaa !11
  %146 = getelementptr inbounds nuw %struct.KINMemRec, ptr %145, i32 0, i32 39
  %147 = load ptr, ptr %146, align 8, !tbaa !81
  %148 = load ptr, ptr %8, align 8, !tbaa !85
  call void @N_VLinearSum(double noundef %139, ptr noundef %142, double noundef %144, ptr noundef %147, ptr noundef %148)
  store i32 0, ptr %6, align 4
  store i32 1, ptr %21, align 4
  br label %149

149:                                              ; preds = %138, %136, %56, %26
  call void @llvm.lifetime.end.p0(i64 4, ptr %20) #7
  call void @llvm.lifetime.end.p0(i64 8, ptr %19) #7
  call void @llvm.lifetime.end.p0(i64 8, ptr %18) #7
  call void @llvm.lifetime.end.p0(i64 8, ptr %17) #7
  call void @llvm.lifetime.end.p0(i64 8, ptr %16) #7
  call void @llvm.lifetime.end.p0(i64 8, ptr %15) #7
  call void @llvm.lifetime.end.p0(i64 8, ptr %14) #7
  call void @llvm.lifetime.end.p0(i64 8, ptr %13) #7
  call void @llvm.lifetime.end.p0(i64 8, ptr %12) #7
  %150 = load i32, ptr %6, align 4
  ret i32 %150
}