; Function Attrs: nounwind uwtable
define i32 @kinLsDQJtimes(ptr noundef %0, ptr noundef %1, ptr noundef %2, ptr readnone captures(none) %3, ptr noundef %4) #0 {
  %6 = icmp eq ptr %4, null
  br i1 %6, label %7, label %8

7:                                                ; preds = %5
  tail call void (ptr, i32, i32, ptr, ptr, ptr, ...) @KINProcessError(ptr noundef null, i32 noundef -1, i32 noundef 1399, ptr noundef nonnull @__func__.kinLsDQJtimes, ptr noundef nonnull @.str, ptr noundef nonnull @.str.1) #13
  br label %kinLs_AccessLMem.exit.thread

8:                                                ; preds = %5
  %9 = getelementptr inbounds nuw i8, ptr %4, i64 584
  %10 = load ptr, ptr %9, align 8, !tbaa !55
  %11 = icmp eq ptr %10, null
  br i1 %11, label %12, label %kinLs_AccessLMem.exit

12:                                               ; preds = %8
  tail call void (ptr, i32, i32, ptr, ptr, ptr, ...) @KINProcessError(ptr noundef nonnull %4, i32 noundef -2, i32 noundef 1406, ptr noundef nonnull @__func__.kinLsDQJtimes, ptr noundef nonnull @.str, ptr noundef nonnull @.str.26) #13
  br label %kinLs_AccessLMem.exit.thread

kinLs_AccessLMem.exit:                            ; preds = %8
  %13 = getelementptr inbounds nuw i8, ptr %0, i64 8
  %14 = load ptr, ptr %13, align 8, !tbaa !23
  %15 = getelementptr inbounds nuw i8, ptr %14, i64 104
  %16 = load ptr, ptr %15, align 8, !tbaa !86
  %17 = icmp eq ptr %16, null
  br i1 %17, label %30, label %18

18:                                               ; preds = %kinLs_AccessLMem.exit
  %19 = getelementptr inbounds nuw i8, ptr %14, i64 152
  %20 = load ptr, ptr %19, align 8, !tbaa !28
  %21 = icmp eq ptr %20, null
  br i1 %21, label %30, label %22

22:                                               ; preds = %18
  %23 = getelementptr inbounds nuw i8, ptr %14, i64 200
  %24 = load ptr, ptr %23, align 8, !tbaa !87
  %25 = icmp eq ptr %24, null
  br i1 %25, label %30, label %26

26:                                               ; preds = %22
  %27 = getelementptr inbounds nuw i8, ptr %14, i64 88
  %28 = load ptr, ptr %27, align 8, !tbaa !61
  %29 = icmp eq ptr %28, null
  br i1 %29, label %30, label %31

30:                                               ; preds = %26, %22, %18, %kinLs_AccessLMem.exit
  tail call void (ptr, i32, i32, ptr, ptr, ptr, ...) @KINProcessError(ptr noundef nonnull %4, i32 noundef -3, i32 noundef 962, ptr noundef nonnull @__func__.kinLsDQJtimes, ptr noundef nonnull @.str, ptr noundef nonnull @.str.5) #13
  br label %kinLs_AccessLMem.exit.thread

31:                                               ; preds = %26
  %32 = getelementptr inbounds nuw i8, ptr %4, i64 296
  %33 = load ptr, ptr %32, align 8, !tbaa !88
  %34 = getelementptr inbounds nuw i8, ptr %4, i64 328
  %35 = load ptr, ptr %34, align 8, !tbaa !13
  tail call void @N_VProd(ptr noundef nonnull %0, ptr noundef %33, ptr noundef %35) #13
  %36 = load ptr, ptr %32, align 8, !tbaa !88
  tail call void @N_VProd(ptr noundef %2, ptr noundef %36, ptr noundef %1) #13
  %37 = load ptr, ptr %34, align 8, !tbaa !13
  %38 = tail call double @N_VDotProd(ptr noundef %1, ptr noundef %37) #13
  %39 = load ptr, ptr %34, align 8, !tbaa !13
  %40 = tail call double @N_VDotProd(ptr noundef %39, ptr noundef %39) #13
  %41 = load ptr, ptr %34, align 8, !tbaa !13
  %42 = tail call double @N_VL1Norm(ptr noundef %41) #13
  %43 = fcmp oge double %38, 0.000000e+00
  %44 = getelementptr inbounds nuw i8, ptr %4, i64 136
  %45 = load double, ptr %44, align 8, !tbaa !89
  %46 = fneg double %45
  %47 = select i1 %43, double %45, double %46
  %48 = tail call double @llvm.fabs.f64(double %38)
  %49 = fcmp ogt double %48, %42
  %50 = select i1 %49, double %48, double %42
  %51 = fmul double %47, %50
  %52 = fdiv double %51, %40
  %53 = load ptr, ptr %34, align 8, !tbaa !13
  tail call void @N_VLinearSum(double noundef 1.000000e+00, ptr noundef %2, double noundef %52, ptr noundef nonnull %0, ptr noundef %53) #13
  %54 = getelementptr inbounds nuw i8, ptr %10, i64 168
  %55 = load ptr, ptr %54, align 8, !tbaa !47
  %56 = load ptr, ptr %34, align 8, !tbaa !13
  %57 = getelementptr inbounds nuw i8, ptr %4, i64 336
  %58 = load ptr, ptr %57, align 8, !tbaa !74
  %59 = getelementptr inbounds nuw i8, ptr %4, i64 24
  %60 = load ptr, ptr %59, align 8, !tbaa !49
  %61 = tail call i32 %55(ptr noundef %56, ptr noundef %58, ptr noundef %60) #13
  %62 = getelementptr inbounds nuw i8, ptr %10, i64 64
  %63 = load i64, ptr %62, align 8, !tbaa !90
  %64 = add nsw i64 %63, 1
  store i64 %64, ptr %62, align 8, !tbaa !90
  %.not29 = icmp eq i32 %61, 0
  br i1 %.not29, label %65, label %kinLs_AccessLMem.exit.thread

65:                                               ; preds = %31
  %66 = fdiv double 1.000000e+00, %52
  %67 = load ptr, ptr %57, align 8, !tbaa !74
  %68 = fneg double %66
  %69 = getelementptr inbounds nuw i8, ptr %4, i64 280
  %70 = load ptr, ptr %69, align 8, !tbaa !73
  tail call void @N_VLinearSum(double noundef %66, ptr noundef %67, double noundef %68, ptr noundef %70, ptr noundef %1) #13
  br label %kinLs_AccessLMem.exit.thread

kinLs_AccessLMem.exit.thread:                     ; preds = %12, %7, %31, %65, %30
  %.0 = phi i32 [ -3, %30 ], [ 0, %65 ], [ %61, %31 ], [ -2, %12 ], [ -1, %7 ]
  ret i32 %.0
}